; Function Attrs: mustprogress uwtable
define hidden void @_ZN4lean12type_checker11check_levelERKNS_5levelE(ptr noundef nonnull readonly align 8 captures(none) dereferenceable(48) %0, ptr noundef nonnull align 8 dereferenceable(8) %1) local_unnamed_addr #0 align 2 personality ptr @__gxx_personality_v0 {
  %3 = alloca %"class.lean::optional", align 8
  %4 = alloca %"class.lean::sstream", align 8
  %5 = getelementptr inbounds nuw i8, ptr %0, i64 40
  %6 = load ptr, ptr %5, align 8, !tbaa !77
  %.not = icmp eq ptr %6, null
  br i1 %.not, label %23, label %7

7:                                                ; preds = %2
  call void @llvm.lifetime.start.p0(i64 16, ptr nonnull %3) #19
  call void @_ZN4lean15get_undef_paramERKNS_5levelERKNS_8list_refINS_4nameEEE(ptr dead_on_unwind nonnull writable sret(%"class.lean::optional") align 8 %3, ptr noundef nonnull align 8 dereferenceable(8) %1, ptr noundef nonnull align 8 dereferenceable(8) %6)
  %8 = load i8, ptr %3, align 8, !tbaa !78, !range !50, !noundef !51
  %9 = trunc nuw i8 %8 to i1
  br i1 %9, label %10, label %_ZN4lean8optionalINS_4nameEED2Ev.exit

10:                                               ; preds = %7
  %11 = call ptr @__cxa_allocate_exception(i64 48) #19
  %12 = getelementptr inbounds nuw i8, ptr %0, i64 8
  %13 = load ptr, ptr %12, align 8, !tbaa !31
  call void @llvm.lifetime.start.p0(i64 376, ptr nonnull %4) #19
  call void @llvm.memset.p0.i64(ptr noundef nonnull align 8 dereferenceable(376) %4, i8 0, i64 376, i1 false)
  invoke void @_ZNSt7__cxx1119basic_ostringstreamIcSt11char_traitsIcESaIcEEC1Ev(ptr noundef nonnull align 8 dereferenceable(376) %4)
          to label %_ZN4lean7sstreamC2Ev.exit unwind label %.thread

_ZN4lean7sstreamC2Ev.exit:                        ; preds = %10
  %14 = invoke noundef nonnull align 8 dereferenceable(8) ptr @_ZSt16__ostream_insertIcSt11char_traitsIcEERSt13basic_ostreamIT_T0_ES6_PKS3_l(ptr noundef nonnull align 8 dereferenceable(376) %4, ptr noundef nonnull @.str, i64 noundef 57)
          to label %_ZN4lean7sstreamlsIA58_cEERS0_RKT_.exit unwind label %.thread11

_ZN4lean7sstreamlsIA58_cEERS0_RKT_.exit:          ; preds = %_ZN4lean7sstreamC2Ev.exit
  %15 = getelementptr inbounds nuw i8, ptr %3, i64 8
  %16 = invoke noundef nonnull align 8 dereferenceable(8) ptr @_ZN4leanlsERSoRKNS_4nameE(ptr noundef nonnull align 8 dereferenceable(376) %4, ptr noundef nonnull align 8 dereferenceable(8) %15)
          to label %_ZN4lean7sstreamlsINS_4nameEEERS0_RKT_.exit unwind label %.thread11

_ZN4lean7sstreamlsINS_4nameEEERS0_RKT_.exit:      ; preds = %_ZN4lean7sstreamlsIA58_cEERS0_RKT_.exit
  %17 = invoke noundef nonnull align 8 dereferenceable(8) ptr @_ZSt16__ostream_insertIcSt11char_traitsIcEERSt13basic_ostreamIT_T0_ES6_PKS3_l(ptr noundef nonnull align 8 dereferenceable(376) %4, ptr noundef nonnull @.str.1, i64 noundef 1)
          to label %_ZN4lean7sstreamlsIA2_cEERS0_RKT_.exit unwind label %.thread11

_ZN4lean7sstreamlsIA2_cEERS0_RKT_.exit:           ; preds = %_ZN4lean7sstreamlsINS_4nameEEERS0_RKT_.exit
  invoke void @_ZN4lean16kernel_exceptionC2ERKNS_11environmentERKNS_7sstreamE(ptr noundef nonnull align 8 dereferenceable(48) %11, ptr noundef nonnull align 8 dereferenceable(8) %13, ptr noundef nonnull align 8 dereferenceable(376) %4)
          to label %18 unwind label %.thread11

18:                                               ; preds = %_ZN4lean7sstreamlsIA2_cEERS0_RKT_.exit
  invoke void @__cxa_throw(ptr nonnull %11, ptr nonnull @_ZTIN4lean16kernel_exceptionE, ptr nonnull @_ZN4lean16kernel_exceptionD2Ev) #20
          to label %24 unwind label %20

.thread:                                          ; preds = %10
  %19 = landingpad { ptr, i32 }
          cleanup
  br label %21

.thread11:                                        ; preds = %_ZN4lean7sstreamlsIA2_cEERS0_RKT_.exit, %_ZN4lean7sstreamC2Ev.exit, %_ZN4lean7sstreamlsIA58_cEERS0_RKT_.exit, %_ZN4lean7sstreamlsINS_4nameEEERS0_RKT_.exit
  %lpad.thr_comm = landingpad { ptr, i32 }
          cleanup
  call void @_ZN4lean7sstreamD2Ev(ptr noundef nonnull align 8 dereferenceable(376) %4) #19
  br label %21

20:                                               ; preds = %18
  %lpad.thr_comm.split-lp = landingpad { ptr, i32 }
          cleanup
  call void @_ZN4lean7sstreamD2Ev(ptr noundef nonnull align 8 dereferenceable(376) %4) #19
  call void @llvm.lifetime.end.p0(i64 376, ptr nonnull %4) #19
  br label %22

21:                                               ; preds = %.thread11, %.thread
  %.pn10 = phi { ptr, i32 } [ %19, %.thread ], [ %lpad.thr_comm, %.thread11 ]
  call void @llvm.lifetime.end.p0(i64 376, ptr nonnull %4) #19
  call void @__cxa_free_exception(ptr %11) #19
  br label %22

_ZN4lean8optionalINS_4nameEED2Ev.exit:            ; preds = %7
  call void @llvm.lifetime.end.p0(i64 16, ptr nonnull %3) #19
  br label %23

22:                                               ; preds = %20, %21
  %.pn9 = phi { ptr, i32 } [ %lpad.thr_comm.split-lp, %20 ], [ %.pn10, %21 ]
  call void @_ZN4lean8optionalINS_4nameEED2Ev(ptr noundef nonnull align 8 dereferenceable(16) %3) #19
  call void @llvm.lifetime.end.p0(i64 16, ptr nonnull %3) #19
  resume { ptr, i32 } %.pn9

23:                                               ; preds = %_ZN4lean8optionalINS_4nameEED2Ev.exit, %2
  ret void

24:                                               ; preds = %18
  unreachable
}